; Function Attrs: mustprogress nounwind uwtable
define void @_ZN5faiss16ProductQuantizer26clear_transposed_centroidsEv(ptr noundef nonnull align 8 dereferenceable(208) %0) local_unnamed_addr #2 align 2 personality ptr @__gxx_personality_v0 {
  %2 = getelementptr inbounds i8, ptr %0, i64 136
  %3 = load ptr, ptr %2, align 8
  %4 = getelementptr inbounds i8, ptr %0, i64 144
  %5 = load ptr, ptr %4, align 8
  %.not.i.i = icmp eq ptr %5, %3
  br i1 %.not.i.i, label %_ZNSt6vectorIfSaIfEE5clearEv.exit, label %6

6:                                                ; preds = %1
  store ptr %3, ptr %4, align 8
  br label %_ZNSt6vectorIfSaIfEE5clearEv.exit

_ZNSt6vectorIfSaIfEE5clearEv.exit:                ; preds = %1, %6
  %7 = tail call noundef zeroext i1 @_ZNSt6vectorIfSaIfEE16_M_shrink_to_fitEv(ptr noundef nonnull align 8 dereferenceable(24) %2)
  %8 = getelementptr inbounds i8, ptr %0, i64 160
  %9 = load ptr, ptr %8, align 8
  %10 = getelementptr inbounds i8, ptr %0, i64 168
  %11 = load ptr, ptr %10, align 8
  %.not.i.i1 = icmp eq ptr %11, %9
  br i1 %.not.i.i1, label %_ZNSt6vectorIfSaIfEE5clearEv.exit2, label %12

12:                                               ; preds = %_ZNSt6vectorIfSaIfEE5clearEv.exit
  store ptr %9, ptr %10, align 8
  br label %_ZNSt6vectorIfSaIfEE5clearEv.exit2

_ZNSt6vectorIfSaIfEE5clearEv.exit2:               ; preds = %_ZNSt6vectorIfSaIfEE5clearEv.exit, %12
  %13 = tail call noundef zeroext i1 @_ZNSt6vectorIfSaIfEE16_M_shrink_to_fitEv(ptr noundef nonnull align 8 dereferenceable(24) %8)
  ret void
}